target datalayout = "e-m:e-p270:32:32-p271:32:32-p272:64:64-i64:64-i128:128-f80:128-n8:16:32:64-S128"
target triple = "x86_64-pc-linux-gnu"

%union.pthread_mutex_t = type { %struct.__pthread_mutex_s }
%struct.__pthread_mutex_s = type { i32, i32, i32, i32, i32, i16, i16, %struct.__pthread_internal_list }
%struct.__pthread_internal_list = type { ptr, ptr }
%union.pthread_cond_t = type { %struct.__pthread_cond_s }
%struct.__pthread_cond_s = type { %union.__atomic_wide_counter, %union.__atomic_wide_counter, [2 x i32], [2 x i32], i32, i32, [2 x i32] }
%union.__atomic_wide_counter = type { i64 }
%struct.assoc_mgr_lock_t = type { i32, i32, i32, i32, i32, i32, i32 }
%struct.log_options_t = type { i32, i32, i32, i8, i8, i8, i32 }
%struct.slurmd_config = type { ptr, ptr, i32, [4096 x i8], ptr, ptr, ptr, ptr, i16, i16, i16, i16, ptr, i16, i64, i16, i16, i16, i16, i16, i16, i16, i16, i16, i16, i16, i64, i64, i32, i32, i16, ptr, ptr, ptr, i32, ptr, ptr, ptr, ptr, ptr, ptr, ptr, ptr, ptr, ptr, i32, ptr, ptr, i16, i32, i32, %struct.log_options_t, i32, i16, i64, i8, i8, i8, i8, i8, %union.pthread_mutex_t, i16, ptr, %union.pthread_cond_t, ptr, %union.pthread_cond_t, i8, i8, ptr, ptr }

@conf = dso_local global ptr null, align 8
@tres_packed = dso_local global i8 0, align 1
@.str.43 = private unnamed_addr constant [29 x i8] c"%s: pthread_mutex_lock(): %m\00", align 1
@__func__.build_conf_buf = private unnamed_addr constant [15 x i8] c"build_conf_buf\00", align 1
@assoc_mgr_tres_list = external global ptr, align 8
@__const.build_conf_buf.locks = private unnamed_addr constant %struct.assoc_mgr_lock_t { i32 0, i32 0, i32 0, i32 0, i32 1, i32 0, i32 0 }, align 4
@.str.44 = private unnamed_addr constant [31 x i8] c"%s: pthread_mutex_unlock(): %m\00", align 1

; Function Attrs: nounwind uwtable
define dso_local void @build_conf_buf() #0 {
  %1 = alloca i32, align 4
  %2 = alloca %struct.assoc_mgr_lock_t, align 4
  %3 = alloca i32, align 4
  br label %4

4:                                                ; preds = %0
  call void @llvm.lifetime.start.p0(i64 4, ptr %1) #11
  %5 = load ptr, ptr @conf, align 8
  %6 = getelementptr inbounds nuw %struct.slurmd_config, ptr %5, i32 0, i32 60
  %7 = call i32 @pthread_mutex_lock(ptr noundef %6) #11
  store i32 %7, ptr %1, align 4
  %8 = load i32, ptr %1, align 4
  %9 = icmp ne i32 %8, 0
  br i1 %9, label %10, label %13

10:                                               ; preds = %4
  %11 = load i32, ptr %1, align 4
  %12 = call ptr @__errno_location() #15
  store i32 %11, ptr %12, align 4
  call void (ptr, ...) @fatal_abort(ptr noundef @.str.43, ptr noundef @__func__.build_conf_buf) #12
  unreachable

13:                                               ; preds = %4
  call void @llvm.lifetime.end.p0(i64 4, ptr %1) #11
  br label %14

14:                                               ; preds = %13
  br label %15

15:                                               ; preds = %14
  %16 = load ptr, ptr @conf, align 8
  %17 = getelementptr inbounds nuw %struct.slurmd_config, ptr %16, i32 0, i32 4
  %18 = load ptr, ptr %17, align 8
  %19 = icmp ne ptr %18, null
  br i1 %19, label %20, label %24

20:                                               ; preds = %15
  %21 = load ptr, ptr @conf, align 8
  %22 = getelementptr inbounds nuw %struct.slurmd_config, ptr %21, i32 0, i32 4
  %23 = load ptr, ptr %22, align 8
  call void @free_buf(ptr noundef %23)
  br label %24

24:                                               ; preds = %20, %15
  %25 = load ptr, ptr @conf, align 8
  %26 = getelementptr inbounds nuw %struct.slurmd_config, ptr %25, i32 0, i32 4
  store ptr null, ptr %26, align 8
  br label %27

27:                                               ; preds = %24
  %28 = call ptr @init_buf(i32 noundef 0)
  %29 = load ptr, ptr @conf, align 8
  %30 = getelementptr inbounds nuw %struct.slurmd_config, ptr %29, i32 0, i32 4
  store ptr %28, ptr %30, align 8
  %31 = load ptr, ptr @conf, align 8
  %32 = load ptr, ptr @conf, align 8
  %33 = getelementptr inbounds nuw %struct.slurmd_config, ptr %32, i32 0, i32 4
  %34 = load ptr, ptr %33, align 8
  call void @pack_slurmd_conf_lite(ptr noundef %31, ptr noundef %34)
  %35 = load ptr, ptr @conf, align 8
  %36 = getelementptr inbounds nuw %struct.slurmd_config, ptr %35, i32 0, i32 4
  %37 = load ptr, ptr %36, align 8
  call void @pack_slurm_conf_lite(ptr noundef %37)
  %38 = load ptr, ptr @assoc_mgr_tres_list, align 8
  %39 = icmp ne ptr %38, null
  br i1 %39, label %40, label %46

40:                                               ; preds = %27
  call void @llvm.lifetime.start.p0(i64 28, ptr %2) #11
  call void @llvm.memcpy.p0.p0.i64(ptr align 4 %2, ptr align 4 @__const.build_conf_buf.locks, i64 28, i1 false)
  call void @assoc_mgr_lock(ptr noundef %2)
  %41 = load ptr, ptr @assoc_mgr_tres_list, align 8
  %42 = load ptr, ptr @conf, align 8
  %43 = getelementptr inbounds nuw %struct.slurmd_config, ptr %42, i32 0, i32 4
  %44 = load ptr, ptr %43, align 8
  %45 = call i32 @slurm_pack_list(ptr noundef %41, ptr noundef @slurmdb_pack_tres_rec, ptr noundef %44, i16 noundef zeroext 11008)
  call void @assoc_mgr_unlock(ptr noundef %2)
  store i8 1, ptr @tres_packed, align 1
  call void @llvm.lifetime.end.p0(i64 28, ptr %2) #11
  br label %47

46:                                               ; preds = %27
  store i8 0, ptr @tres_packed, align 1
  br label %47

47:                                               ; preds = %46, %40
  br label %48

48:                                               ; preds = %47
  call void @llvm.lifetime.start.p0(i64 4, ptr %3) #11
  %49 = load ptr, ptr @conf, align 8
  %50 = getelementptr inbounds nuw %struct.slurmd_config, ptr %49, i32 0, i32 60
  %51 = call i32 @pthread_mutex_unlock(ptr noundef %50) #11
  store i32 %51, ptr %3, align 4
  %52 = load i32, ptr %3, align 4
  %53 = icmp ne i32 %52, 0
  br i1 %53, label %54, label %57

54:                                               ; preds = %48
  %55 = load i32, ptr %3, align 4
  %56 = call ptr @__errno_location() #15
  store i32 %55, ptr %56, align 4
  call void (ptr, ...) @fatal_abort(ptr noundef @.str.44, ptr noundef @__func__.build_conf_buf) #12
  unreachable

57:                                               ; preds = %48
  call void @llvm.lifetime.end.p0(i64 4, ptr %3) #11
  br label %58

58:                                               ; preds = %57
  ret void
}