; Function Attrs: nounwind uwtable
define dso_local void @build_conf_buf() local_unnamed_addr #0 {
  %1 = alloca %struct.assoc_mgr_lock_t, align 4
  %2 = load ptr, ptr @conf, align 8
  %3 = getelementptr inbounds nuw i8, ptr %2, i64 4432
  %4 = tail call i32 @pthread_mutex_lock(ptr noundef nonnull %3) #18
  %.not = icmp eq i32 %4, 0
  br i1 %.not, label %7, label %5

5:                                                ; preds = %0
  %6 = tail call ptr @__errno_location() #21
  store i32 %4, ptr %6, align 4
  tail call void (ptr, ...) @fatal_abort(ptr noundef nonnull @.str.43, ptr noundef nonnull @__func__.build_conf_buf) #19
  unreachable

7:                                                ; preds = %0
  %8 = load ptr, ptr @conf, align 8
  %9 = getelementptr inbounds nuw i8, ptr %8, i64 4120
  %10 = load ptr, ptr %9, align 8
  %.not6 = icmp eq ptr %10, null
  br i1 %.not6, label %12, label %11

11:                                               ; preds = %7
  tail call void @free_buf(ptr noundef nonnull %10) #18
  %.pre = load ptr, ptr @conf, align 8
  br label %12

12:                                               ; preds = %11, %7
  %13 = phi ptr [ %.pre, %11 ], [ %8, %7 ]
  %14 = getelementptr inbounds nuw i8, ptr %13, i64 4120
  store ptr null, ptr %14, align 8
  %15 = tail call ptr @init_buf(i32 noundef 0) #18
  %16 = load ptr, ptr @conf, align 8
  %17 = getelementptr inbounds nuw i8, ptr %16, i64 4120
  store ptr %15, ptr %17, align 8
  tail call void @pack_slurmd_conf_lite(ptr noundef %16, ptr noundef %15) #18
  %18 = load ptr, ptr @conf, align 8
  %19 = getelementptr inbounds nuw i8, ptr %18, i64 4120
  %20 = load ptr, ptr %19, align 8
  tail call void @pack_slurm_conf_lite(ptr noundef %20) #18
  %21 = load ptr, ptr @assoc_mgr_tres_list, align 8
  %.not7 = icmp eq ptr %21, null
  br i1 %.not7, label %28, label %22

22:                                               ; preds = %12
  call void @llvm.lifetime.start.p0(i64 28, ptr nonnull %1) #18
  call void @llvm.memcpy.p0.p0.i64(ptr noundef nonnull align 4 dereferenceable(28) %1, ptr noundef nonnull align 4 dereferenceable(28) @__const.build_conf_buf.locks, i64 28, i1 false)
  call void @assoc_mgr_lock(ptr noundef nonnull %1) #18
  %23 = load ptr, ptr @assoc_mgr_tres_list, align 8
  %24 = load ptr, ptr @conf, align 8
  %25 = getelementptr inbounds nuw i8, ptr %24, i64 4120
  %26 = load ptr, ptr %25, align 8
  %27 = call i32 @slurm_pack_list(ptr noundef %23, ptr noundef nonnull @slurmdb_pack_tres_rec, ptr noundef %26, i16 noundef zeroext 11008) #18
  call void @assoc_mgr_unlock(ptr noundef nonnull %1) #18
  call void @llvm.lifetime.end.p0(i64 28, ptr nonnull %1) #18
  br label %28

28:                                               ; preds = %12, %22
  %.sink = phi i8 [ 1, %22 ], [ 0, %12 ]
  store i8 %.sink, ptr @tres_packed, align 1
  %29 = load ptr, ptr @conf, align 8
  %30 = getelementptr inbounds nuw i8, ptr %29, i64 4432
  %31 = call i32 @pthread_mutex_unlock(ptr noundef nonnull %30) #18
  %.not8 = icmp eq i32 %31, 0
  br i1 %.not8, label %34, label %32

32:                                               ; preds = %28
  %33 = tail call ptr @__errno_location() #21
  store i32 %31, ptr %33, align 4
  call void (ptr, ...) @fatal_abort(ptr noundef nonnull @.str.44, ptr noundef nonnull @__func__.build_conf_buf) #19
  unreachable

34:                                               ; preds = %28
  ret void
}